target datalayout = "e-m:e-p270:32:32-p271:32:32-p272:64:64-i64:64-i128:128-f80:128-n8:16:32:64-S128"
target triple = "x86_64-pc-linux-gnu"

%struct.KINMemRec = type { ptr, double, ptr, ptr, double, double, i32, i64, i64, i64, i64, i32, i32, i32, i32, i32, i32, i32, i32, double, double, double, double, double, double, double, double, double, i32, double, i64, i64, i64, i64, i64, i64, i64, ptr, ptr, ptr, ptr, ptr, ptr, ptr, ptr, ptr, ptr, ptr, i32, i32, double, ptr, ptr, ptr, ptr, ptr, double, ptr, ptr, ptr, ptr, i64, i64, i32, ptr, ptr, i32, ptr, ptr, i64, i64, i64, i64, ptr, ptr, ptr, ptr, i32, ptr, double, double, double, double, double, i32, double, double, double, i32 }

@.str = private unnamed_addr constant [118 x i8] c"generated/home/dtcxzyw/WorkSpace/Projects/compilers/llvm-opt-benchmark/bench/sundials/sundials/src/kinsol/kinsol_io.c\00", align 1
@.str.1 = private unnamed_addr constant [27 x i8] c"kinsol_mem = NULL illegal.\00", align 1
@__func__.KINGetNumNonlinSolvIters = private unnamed_addr constant [25 x i8] c"KINGetNumNonlinSolvIters\00", align 1

; Function Attrs: nounwind uwtable
define i32 @KINGetNumNonlinSolvIters(ptr noundef %0, ptr noundef %1) #0 {
  %3 = alloca i32, align 4
  %4 = alloca ptr, align 8
  %5 = alloca ptr, align 8
  %6 = alloca ptr, align 8
  %7 = alloca i32, align 4
  store ptr %0, ptr %4, align 8, !tbaa !3
  store ptr %1, ptr %5, align 8, !tbaa !58
  call void @llvm.lifetime.start.p0(i64 8, ptr %6) #5
  %8 = load ptr, ptr %4, align 8, !tbaa !3
  %9 = icmp eq ptr %8, null
  br i1 %9, label %10, label %11

10:                                               ; preds = %2
  call void (ptr, i32, i32, ptr, ptr, ptr, ...) @KINProcessError(ptr noundef null, i32 noundef -1, i32 noundef 930, ptr noundef @__func__.KINGetNumNonlinSolvIters, ptr noundef @.str, ptr noundef @.str.1)
  store i32 -1, ptr %3, align 4
  store i32 1, ptr %7, align 4
  br label %17

11:                                               ; preds = %2
  %12 = load ptr, ptr %4, align 8, !tbaa !3
  store ptr %12, ptr %6, align 8, !tbaa !7
  %13 = load ptr, ptr %6, align 8, !tbaa !7
  %14 = getelementptr inbounds nuw %struct.KINMemRec, ptr %13, i32 0, i32 30
  %15 = load i64, ptr %14, align 8, !tbaa !59
  %16 = load ptr, ptr %5, align 8, !tbaa !58
  store i64 %15, ptr %16, align 8, !tbaa !23
  store i32 0, ptr %3, align 4
  store i32 1, ptr %7, align 4
  br label %17

17:                                               ; preds = %11, %10
  call void @llvm.lifetime.end.p0(i64 8, ptr %6) #5
  %18 = load i32, ptr %3, align 4
  ret i32 %18
}